(lp0
(lp1
F-0.027459330099999988
aF0.0
aa(lp2
F-0.027539642500000013
aF-0.0006221138999999848
aa(lp3
F-0.02761995489999998
aF-0.0012442278999999987
aa(lp4
F-0.027700267300000005
aF-0.0018663417999999835
aa(lp5
F-0.027780579699999974
aF-0.0024884557000000307
aa(lp6
F-0.027860892199999966
aF-0.0031105696000000155
aa(lp7
F-0.02794120459999999
aF-0.003732683500000007
aa(lp8
F-0.02815764339999998
aF-0.004354797500000014
aa(lp9
F-0.028374082299999995
aF-0.004976310800000022
aa(lp10
F-0.02859052120000001
aF-0.005597824100000023
aa(lp11
F-0.02880696009999997
aF-0.006219337499999991
aa(lp12
F-0.02902339899999998
aF-0.006840850799999999
aa(lp13
F-0.029239837899999996
aF-0.007462364200000023
aa(lp14
F-0.02945627680000001
aF-0.00808387750000003
aa(lp15
F-0.029672715600000003
aF-0.008705390899999998
aa(lp16
F-0.02998853349999996
aF-0.0093269042
aa(lp17
F-0.030304351300000008
aF-0.0099472164
aa(lp18
F-0.030620169099999997
aF-0.0105675286
aa(lp19
F-0.03093598700000001
aF-0.011187840800000001
aa(lp20
F-0.0312518048
aF-0.011808153000000002
aa(lp21
F-0.03156762259999999
aF-0.012428465200000002
aa(lp22
F-0.031883440500000006
aF-0.013048777400000003
aa(lp23
F-0.0321992583
aF-0.013669089600000003
aa(lp24
F-0.0325777076
aF-0.014289401800000004
aa(lp25
F-0.03295615679999997
aF-0.01490791230000002
aa(lp26
F-0.03333460609999997
aF-0.015526422800000033
aa(lp27
F-0.03371305539999997
aF-0.01614493329999999
aa(lp28
F-0.03409150460000001
aF-0.016763443800000003
aa(lp29
F-0.0344699539
aF-0.017381954300000016
aa(lp30
F-0.03484840309999998
aF-0.018000464800000032
aa(lp31
F-0.03522685239999998
aF-0.018618975299999986
aa(lp32
F-0.035631185599999976
aF-0.019237485700000036
aa(lp33
F-0.03603551870000001
aF-0.01985359390000002
aa(lp34
F-0.03643985190000001
aF-0.020469702100000004
aa(lp35
F-0.0368441851
aF-0.02108581029999999
aa(lp36
F-0.037248518199999976
aF-0.02170191850000003
aa(lp37
F-0.03765285139999997
aF-0.022318026700000018
aa(lp38
F-0.03805718459999997
aF-0.022934134900000003
aa(lp39
F-0.0384615177
aF-0.02355024309999999
aa(lp40
F-0.038854987300000005
aF-0.02416635130000003
aa(lp41
F-0.039248456799999984
aF-0.024779456700000025
aa(lp42
F-0.039641926399999985
aF-0.025392561999999997
aa(lp43
F-0.040035395899999965
aF-0.026005667300000028
aa(lp44
F-0.04042886549999997
aF-0.026618772700000022
aa(lp45
F-0.04082233500000001
aF-0.027231877999999994
aa(lp46
F-0.04121580460000001
aF-0.027844983399999988
aa(lp47
F-0.04160927409999999
aF-0.02845808870000002
aa(lp48
F-0.04195513249999999
aF-0.02907119399999999
aa(lp49
F-0.04230099089999999
aF-0.029680695899999988
aa(lp50
F-0.042646849400000006
aF-0.030290197799999988
aa(lp51
F-0.0429927078
aF-0.030899699800000006
aa(lp52
F-0.043338566200000005
aF-0.0315092017
aa(lp53
F-0.0436844246
aF-0.032118703600000006
aa(lp54
F-0.044030282999999996
aF-0.0327282055
aa(lp55
F-0.04437614139999999
aF-0.0333377074
aa(lp56
F-0.04463764109999999
aF-0.033947209299999996
aa(lp57
F-0.04489914089999996
aF-0.034552507200000034
aa(lp58
F-0.04516064059999996
aF-0.035157805100000016
aa(lp59
F-0.04542214039999999
aF-0.035763103000000004
aa(lp60
F-0.04568364009999999
aF-0.03636840090000004
aa(lp61
F-0.045945139900000015
aF-0.036973698800000024
aa(lp62
F-0.04620663959999996
aF-0.037578996700000006
aa(lp63
F-0.04646813929999996
aF-0.03818429459999999
aa(lp64
F-0.0466085329
aF-0.038789592500000025
aa(lp65
F-0.04674892649999998
aF-0.03939008580000001
aa(lp66
F-0.04688932
aF-0.039990579200000015
aa(lp67
F-0.04702971359999998
aF-0.04059107249999999
aa(lp68
F-0.0471701071
aF-0.04119156580000004
aa(lp69
F-0.04731050069999997
aF-0.041792059100000015
aa(lp70
F-0.04745089419999999
aF-0.04239255250000002
aa(lp71
F-0.04759128779999997
aF-0.042993045800000004
aa(lp72
F-0.04757887699999998
aF-0.04359353909999999
aa(lp73
F-0.04756646619999998
aF-0.044187794800000006
aa(lp74
F-0.04755405539999998
aF-0.0447820504
aa(lp75
F-0.04754164459999998
aF-0.04537630610000002
aa(lp76
F-0.04752923379999999
aF-0.045970561700000016
aa(lp77
F-0.047516822999999986
aF-0.046564817400000034
aa(lp78
F-0.04750441219999999
aF-0.0471590731
aa(lp79
F-0.04749200139999999
aF-0.0477533287
aa(lp80
F-0.0473283869
aF-0.04834758440000002
aa(lp81
F-0.047164772400000006
aF-0.04892867910000001
aa(lp82
F-0.04700115790000001
aF-0.04950977370000001
aa(lp83
F-0.046837543400000015
aF-0.0500908684
aa(lp84
F-0.04667392889999996
aF-0.050671963099999995
aa(lp85
F-0.04651031439999997
aF-0.05125305780000002
aa(lp86
F-0.046346699899999975
aF-0.051834152500000015
aa(lp87
F-0.04618308539999998
aF-0.05241524720000001
aa(lp88
F-0.04588335309999996
aF-0.05299634190000001
aa(lp89
F-0.04558362089999997
aF-0.0535551289
aa(lp90
F-0.045283888699999976
aF-0.054113915900000024
aa(lp91
F-0.04498415649999998
aF-0.054672702900000016
aa(lp92
F-0.04468442429999999
aF-0.055231489900000014
aa(lp93
F-0.04438469209999999
aF-0.055790276900000005
aa(lp94
F-0.0440849599
aF-0.0563490639
aa(lp95
F-0.043785227700000005
aF-0.0569078509
aa(lp96
F-0.04336450189999999
aF-0.05746663790000002
aa(lp97
F-0.0429437762
aF-0.057993964200000025
aa(lp98
F-0.042523050500000006
aF-0.05852129050000002
aa(lp99
F-0.0421023247
aF-0.059048616800000016
aa(lp100
F-0.04168159900000001
aF-0.059575943100000014
aa(lp101
F-0.04126087319999999
aF-0.06010326940000001
aa(lp102
F-0.0408401475
aF-0.06063059570000001
aa(lp103
F-0.04041942180000001
aF-0.06115792200000001
aa(lp104
F-0.0398928267
aF-0.06168524830000001
aa(lp105
F-0.03936623159999999
aF-0.06217196080000002
aa(lp106
F-0.038839636600000005
aF-0.0626586734
aa(lp107
F-0.0383130415
aF-0.063145386
aa(lp108
F-0.037786446399999986
aF-0.0636320986
aa(lp109
F-0.0372598514
aF-0.06411881120000001
aa(lp110
F-0.03673325629999999
aF-0.06460552370000003
aa(lp111
F-0.03620666119999998
aF-0.06509223630000002
aa(lp112
F-0.03558932099999998
aF-0.0655789489
aa(lp113
F-0.03497198079999998
aF-0.06601589470000002
aa(lp114
F-0.03435464059999998
aF-0.06645284060000001
aa(lp115
F-0.03373730039999998
aF-0.06688978640000001
aa(lp116
F-0.03311996019999998
aF-0.0673267323
aa(lp117
F-0.032502619999999975
aF-0.06776367810000002
aa(lp118
F-0.03188527979999998
aF-0.068200624
aa(lp119
F-0.031267939599999975
aF-0.06863756980000002
aa(lp120
F-0.030574978399999963
aF-0.06907451560000001
aa(lp121
F-0.029882017299999973
aF-0.06945254170000001
aa(lp122
F-0.029189056099999958
aF-0.0698305678
aa(lp123
F-0.028496094999999968
aF-0.0702085939
aa(lp124
F-0.02780313380000001
aF-0.07058662000000002
aa(lp125
F-0.027110172599999996
aF-0.07096464610000001
aa(lp126
F-0.026417211500000006
aF-0.07134267220000001
aa(lp127
F-0.025724250299999994
aF-0.07172069830000001
aa(lp128
F-0.024970792399999994
aF-0.07209872440000001
aa(lp129
F-0.024217334499999993
aF-0.0724086777
aa(lp130
F-0.023463876599999992
aF-0.07271863100000002
aa(lp131
F-0.022710418599999966
aF-0.0730285843
aa(lp132
F-0.021956960699999965
aF-0.07333853760000003
aa(lp133
F-0.021203502799999965
aF-0.07364849100000001
aa(lp134
F-0.020450044899999964
aF-0.07395844430000002
aa(lp135
F-0.019696586999999963
aF-0.07426839760000001
aa(lp136
F-0.018897756500000012
aF-0.0745783509
aa(lp137
F-0.018098926000000005
aF-0.0748110785
aa(lp138
F-0.017300095499999998
aF-0.07504380600000002
aa(lp139
F-0.016501264999999987
aF-0.07527653349999999
aa(lp140
F-0.01570243449999998
aF-0.0755092611
aa(lp141
F-0.014903603999999971
aF-0.0757419886
aa(lp142
F-0.014104773499999964
aF-0.07597471610000002
aa(lp143
F-0.013305943000000013
aF-0.0762074437
aa(lp144
F-0.012476864199999965
aF-0.0764401712
aa(lp145
F-0.011647785300000008
aF-0.07658652
aa(lp146
F-0.010818706399999996
aF-0.07673286870000001
aa(lp147
F-0.009989627499999982
aF-0.07687921740000002
aa(lp148
F-0.009160548699999991
aF-0.0770255662
aa(lp149
F-0.008331469799999979
aF-0.07717191490000003
aa(lp150
F-0.007502390899999965
aF-0.07731826360000002
aa(lp151
F-0.006673312099999974
aF-0.07746461240000002
aa(lp152
F-0.005829108999999959
aF-0.07761096110000003
aa(lp153
F-0.0049849059
aF-0.077661778
aa(lp154
F-0.004140702900000006
aF-0.0777125949
aa(lp155
F-0.003296499799999991
aF-0.0777634118
aa(lp156
F-0.0024522967999999977
aF-0.0778142287
aa(lp157
F-0.0016080936999999824
aF-0.07786504570000002
aa(lp158
F-0.0007638905999999667
aF-0.07791586260000002
aa(lp159
F8.031240000002648e-05
aF-0.0779666795
aa(lp160
F0.0009245155000000421
aF-0.0780174964
aa(lp161
F0.0017687185000000354
aF-0.0779666795
aa(lp162
F0.002612921599999994
aF-0.07791586260000002
aa(lp163
F0.0034571247000000096
aF-0.07786504570000002
aa(lp164
F0.004301327700000003
aF-0.0778142287
aa(lp165
F0.005145530800000018
aF-0.0777634118
aa(lp166
F0.005989733900000034
aF-0.0777125949
aa(lp167
F0.006833936900000027
aF-0.077661778
aa(lp168
F0.007663015800000041
aF-0.07761096110000003
aa(lp169
F0.008492094699999998
aF-0.07746461240000002
aa(lp170
F0.009321173499999988
aF-0.07731826360000002
aa(lp171
F0.0101502524
aF-0.07717191490000003
aa(lp172
F0.010979331300000015
aF-0.0770255662
aa(lp173
F0.011808410100000005
aF-0.07687921740000002
aa(lp174
F0.012637489000000017
aF-0.07673286870000001
aa(lp175
F0.013466567900000032
aF-0.07658652
aa(lp176
F0.014265398400000039
aF-0.0764401712
aa(lp177
F0.01506422889999999
aF-0.0762074437
aa(lp178
F0.015863059399999997
aF-0.07597471610000002
aa(lp179
F0.01666188980000004
aF-0.0757419886
aa(lp180
F0.017460720299999993
aF-0.0755092611
aa(lp181
F0.0182595508
aF-0.07527653349999999
aa(lp182
F0.01905838130000001
aF-0.07504380600000002
aa(lp183
F0.019857211800000017
aF-0.0748110785
aa(lp184
F0.020610669700000018
aF-0.0745783509
aa(lp185
F0.02136412770000004
aF-0.07426839760000001
aa(lp186
F0.02211758560000004
aF-0.07395844430000002
aa(lp187
F0.022871043499999986
aF-0.07364849100000001
aa(lp188
F0.023624501399999987
aF-0.07333853760000003
aa(lp189
F0.024377959299999988
aF-0.0730285843
aa(lp190
F0.02513141730000001
aF-0.07271863100000002
aa(lp191
F0.02588487520000001
aF-0.0724086777
aa(lp192
F0.0265778363
aF-0.07209872440000001
aa(lp193
F0.027270797500000016
aF-0.07172069830000001
aa(lp194
F0.027963758600000006
aF-0.07134267220000001
aa(lp195
F0.02865671980000002
aF-0.07096464610000001
aa(lp196
F0.029349681000000034
aF-0.07058662000000002
aa(lp197
F0.030042642100000023
aF-0.0702085939
aa(lp198
F0.03073560330000004
aF-0.0698305678
aa(lp199
F0.031428564400000025
aF-0.06945254170000001
aa(lp200
F0.03204590460000003
aF-0.06907451560000001
aa(lp201
F0.0326632449
aF-0.06863756980000002
aa(lp202
F0.033280585099999996
aF-0.068200624
aa(lp203
F0.0338979253
aF-0.06776367810000002
aa(lp204
F0.034515265499999996
aF-0.0673267323
aa(lp205
F0.0351326057
aF-0.06688978640000001
aa(lp206
F0.0357499459
aF-0.06645284060000001
aa(lp207
F0.0363672861
aF-0.06601589470000002
aa(lp208
F0.03689388120000001
aF-0.0655789489
aa(lp209
F0.0374204762
aF-0.06509223630000002
aa(lp210
F0.0379470713
aF-0.06460552370000003
aa(lp211
F0.038473666400000016
aF-0.06411881120000001
aa(lp212
F0.0390002614
aF-0.0636320986
aa(lp213
F0.03952685650000001
aF-0.063145386
aa(lp214
F0.04005345160000002
aF-0.0626586734
aa(lp215
F0.0405800466
aF-0.06217196080000002
aa(lp216
F0.04100077240000002
aF-0.06168524830000001
aa(lp217
F0.04142149810000001
aF-0.06115792200000001
aa(lp218
F0.0418422238
aF-0.06063059570000001
aa(lp219
F0.042262949600000016
aF-0.06010326940000001
aa(lp220
F0.04268367530000001
aF-0.059575943100000014
aa(lp221
F0.043104400999999994
aF-0.059048616800000016
aa(lp222
F0.04352512680000001
aF-0.05852129050000002
aa(lp223
F0.0439458525
aF-0.057993964200000025
aa(lp224
F0.04424558469999999
aF-0.05746663790000002
aa(lp225
F0.04454531689999999
aF-0.0569078509
aa(lp226
F0.04484504910000004
aF-0.0563490639
aa(lp227
F0.0451447814
aF-0.055790276900000005
aa(lp228
F0.04544451359999999
aF-0.055231489900000014
aa(lp229
F0.045744245799999986
aF-0.054672702900000016
aa(lp230
F0.04604397800000004
aF-0.054113915900000024
aa(lp231
F0.046343710200000034
aF-0.0535551289
aa(lp232
F0.046507324700000026
aF-0.05299634190000001
aa(lp233
F0.046670939200000025
aF-0.05241524720000001
aa(lp234
F0.04683455370000002
aF-0.051834152500000015
aa(lp235
F0.04699816820000001
aF-0.05125305780000002
aa(lp236
F0.0471617827
aF-0.050671963099999995
aa(lp237
F0.0473253972
aF-0.0500908684
aa(lp238
F0.04748901169999999
aF-0.04950977370000001
aa(lp239
F0.047652626199999985
aF-0.04892867910000001
aa(lp240
F0.04766503700000004
aF-0.04834758440000002
aa(lp241
F0.04767744780000004
aF-0.0477533287
aa(lp242
F0.04768985860000004
aF-0.0471590731
aa(lp243
F0.04770226940000004
aF-0.046564817400000034
aa(lp244
F0.04771468020000003
aF-0.045970561700000016
aa(lp245
F0.047727091000000034
aF-0.04537630610000002
aa(lp246
F0.04773950180000003
aF-0.0447820504
aa(lp247
F0.04775191269999999
aF-0.044187794800000006
aa(lp248
F0.04761151910000001
aF-0.04359353909999999
aa(lp249
F0.04747112550000003
aF-0.042993045800000004
aa(lp250
F0.047330732000000014
aF-0.04239255250000002
aa(lp251
F0.04719033840000003
aF-0.041792059100000015
aa(lp252
F0.047049944900000015
aF-0.04119156580000004
aa(lp253
F0.04690955130000003
aF-0.04059107249999999
aa(lp254
F0.046769157800000016
aF-0.039990579200000015
aa(lp255
F0.046628764200000034
aF-0.03939008580000001
aa(lp256
F0.04636726450000003
aF-0.038789592500000025
aa(lp257
F0.04610576470000001
aF-0.03818429459999999
aa(lp258
F0.04584426500000001
aF-0.037578996700000006
aa(lp259
F0.04558276520000004
aF-0.036973698800000024
aa(lp260
F0.04532126550000004
aF-0.03636840090000004
aa(lp261
F0.04505976570000002
aF-0.035763103000000004
aa(lp262
F0.04479826600000001
aF-0.035157805100000016
aa(lp263
F0.04453676619999999
aF-0.034552507200000034
aa(lp264
F0.04419090779999999
aF-0.033947209299999996
aa(lp265
F0.043845049399999995
aF-0.0333377074
aa(lp266
F0.043499191
aF-0.0327282055
aa(lp267
F0.0431533326
aF-0.032118703600000006
aa(lp268
F0.0428074742
aF-0.0315092017
aa(lp269
F0.042461615800000005
aF-0.030899699800000006
aa(lp270
F0.04211575740000001
aF-0.030290197799999988
aa(lp271
F0.04176989900000001
aF-0.029680695899999988
aa(lp272
F0.041376429400000005
aF-0.02907119399999999
aa(lp273
F0.040982959900000025
aF-0.02845808870000002
aa(lp274
F0.040589490300000024
aF-0.027844983399999988
aa(lp275
F0.04019602079999999
aF-0.027231877999999994
aa(lp276
F0.03980255120000004
aF-0.026618772700000022
aa(lp277
F0.0394090817
aF-0.026005667300000028
aa(lp278
F0.0390156121
aF-0.025392561999999997
aa(lp279
F0.03862214260000002
aF-0.024779456700000025
aa(lp280
F0.038217809400000025
aF-0.02416635130000003
aa(lp281
F0.03781347629999999
aF-0.02355024309999999
aa(lp282
F0.03740914309999999
aF-0.022934134900000003
aa(lp283
F0.0370048099
aF-0.022318026700000018
aa(lp284
F0.036600476800000024
aF-0.02170191850000003
aa(lp285
F0.03619614360000003
aF-0.02108581029999999
aa(lp286
F0.03579181040000003
aF-0.020469702100000004
aa(lp287
F0.035387477300000005
aF-0.01985359390000002
aa(lp288
F0.035009028000000005
aF-0.019237485700000036
aa(lp289
F0.034630578700000005
aF-0.018618975299999986
aa(lp290
F0.03425212950000003
aF-0.018000464800000032
aa(lp291
F0.03387368020000003
aF-0.017381954300000016
aa(lp292
F0.03349523099999999
aF-0.016763443800000003
aa(lp293
F0.03311678169999999
aF-0.01614493329999999
aa(lp294
F0.03273833239999999
aF-0.015526422800000033
aa(lp295
F0.032359883200000016
aF-0.01490791230000002
aa(lp296
F0.0320440653
aF-0.014289401800000004
aa(lp297
F0.03172824750000001
aF-0.013669089600000003
aa(lp298
F0.03141242970000002
aF-0.013048777400000003
aa(lp299
F0.031096611800000007
aF-0.012428465200000002
aa(lp300
F0.030780794000000014
aF-0.011808153000000002
aa(lp301
F0.030464976200000025
aF-0.011187840800000001
aa(lp302
F0.030149158300000013
aF-0.0105675286
aa(lp303
F0.02983334050000002
aF-0.0099472164
aa(lp304
F0.029616901600000006
aF-0.0093269042
aa(lp305
F0.029400462699999994
aF-0.008705390899999998
aa(lp306
F0.029184023800000035
aF-0.00808387750000003
aa(lp307
F0.028967584999999987
aF-0.007462364200000023
aa(lp308
F0.02875114610000003
aF-0.006840850799999999
aa(lp309
F0.028534707200000016
aF-0.006219337499999991
aa(lp310
F0.0283182683
aF-0.005597824100000023
aa(lp311
F0.028101829399999986
aF-0.004976310800000022
aa(lp312
F0.028021517000000017
aF-0.004354797500000014
aa(lp313
F0.02794120459999999
aF-0.003732683500000007
aa(lp314
F0.027860892200000025
aF-0.0031105696000000155
aa(lp315
F0.0277805798
aF-0.0024884557000000307
aa(lp316
F0.02770026740000003
aF-0.0018663417999999835
aa(lp317
F0.027619955000000005
aF-0.0012442278999999987
aa(lp318
F0.027539642500000013
aF-0.0006221138999999848
aa(lp319
F0.027459330099999988
aF0.0
aa(lp320
F0.027539642500000013
aF0.0006221138999999848
aa(lp321
F0.02761995489999998
aF0.0012442278999999987
aa(lp322
F0.027700267300000005
aF0.0018663417999999835
aa(lp323
F0.027780579699999974
aF0.0024884557000000307
aa(lp324
F0.027860892199999966
aF0.0031105696000000155
aa(lp325
F0.02794120459999999
aF0.003732683500000007
aa(lp326
F0.02815764339999998
aF0.004354797500000014
aa(lp327
F0.028374082299999995
aF0.004976310800000022
aa(lp328
F0.02859052120000001
aF0.005597824100000023
aa(lp329
F0.02880696009999997
aF0.006219337499999991
aa(lp330
F0.02902339899999998
aF0.006840850799999999
aa(lp331
F0.029239837899999996
aF0.007462364200000023
aa(lp332
F0.02945627680000001
aF0.00808387750000003
aa(lp333
F0.029672715600000003
aF0.008705390899999998
aa(lp334
F0.02998853349999996
aF0.0093269042
aa(lp335
F0.030304351300000008
aF0.0099472164
aa(lp336
F0.030620169099999997
aF0.0105675286
aa(lp337
F0.03093598700000001
aF0.011187840800000001
aa(lp338
F0.0312518048
aF0.011808153000000002
aa(lp339
F0.03156762259999999
aF0.012428465200000002
aa(lp340
F0.031883440500000006
aF0.013048777400000003
aa(lp341
F0.0321992583
aF0.013669089600000003
aa(lp342
F0.0325777076
aF0.014289401800000004
aa(lp343
F0.03295615679999997
aF0.01490791230000002
aa(lp344
F0.03333460609999997
aF0.015526422800000033
aa(lp345
F0.03371305539999997
aF0.01614493329999999
aa(lp346
F0.03409150460000001
aF0.016763443800000003
aa(lp347
F0.0344699539
aF0.017381954300000016
aa(lp348
F0.03484840309999998
aF0.018000464800000032
aa(lp349
F0.03522685239999998
aF0.018618975299999986
aa(lp350
F0.035631185599999976
aF0.019237485700000036
aa(lp351
F0.03603551870000001
aF0.01985359390000002
aa(lp352
F0.03643985190000001
aF0.020469702100000004
aa(lp353
F0.0368441851
aF0.02108581029999999
aa(lp354
F0.037248518199999976
aF0.02170191850000003
aa(lp355
F0.03765285139999997
aF0.022318026700000018
aa(lp356
F0.03805718459999997
aF0.022934134900000003
aa(lp357
F0.0384615177
aF0.02355024309999999
aa(lp358
F0.038854987300000005
aF0.02416635130000003
aa(lp359
F0.039248456799999984
aF0.024779456700000025
aa(lp360
F0.039641926399999985
aF0.025392561999999997
aa(lp361
F0.040035395899999965
aF0.026005667300000028
aa(lp362
F0.04042886549999997
aF0.026618772700000022
aa(lp363
F0.04082233500000001
aF0.027231877999999994
aa(lp364
F0.04121580460000001
aF0.027844983399999988
aa(lp365
F0.04160927409999999
aF0.02845808870000002
aa(lp366
F0.04195513249999999
aF0.02907119399999999
aa(lp367
F0.04230099089999999
aF0.029680695899999988
aa(lp368
F0.042646849400000006
aF0.030290197799999988
aa(lp369
F0.0429927078
aF0.030899699800000006
aa(lp370
F0.043338566200000005
aF0.0315092017
aa(lp371
F0.0436844246
aF0.032118703600000006
aa(lp372
F0.044030282999999996
aF0.0327282055
aa(lp373
F0.04437614139999999
aF0.0333377074
aa(lp374
F0.04463764109999999
aF0.033947209299999996
aa(lp375
F0.04489914089999996
aF0.034552507200000034
aa(lp376
F0.04516064059999996
aF0.035157805100000016
aa(lp377
F0.04542214039999999
aF0.035763103000000004
aa(lp378
F0.04568364009999999
aF0.03636840090000004
aa(lp379
F0.045945139900000015
aF0.036973698800000024
aa(lp380
F0.04620663959999996
aF0.037578996700000006
aa(lp381
F0.04646813929999996
aF0.03818429459999999
aa(lp382
F0.0466085329
aF0.038789592500000025
aa(lp383
F0.04674892649999998
aF0.03939008580000001
aa(lp384
F0.04688932
aF0.039990579200000015
aa(lp385
F0.04702971359999998
aF0.04059107249999999
aa(lp386
F0.0471701071
aF0.04119156580000004
aa(lp387
F0.04731050069999997
aF0.041792059100000015
aa(lp388
F0.04745089419999999
aF0.04239255250000002
aa(lp389
F0.04759128779999997
aF0.042993045800000004
aa(lp390
F0.04757887699999998
aF0.04359353909999999
aa(lp391
F0.04756646619999998
aF0.044187794800000006
aa(lp392
F0.04755405539999998
aF0.0447820504
aa(lp393
F0.04754164459999998
aF0.04537630610000002
aa(lp394
F0.04752923379999999
aF0.045970561700000016
aa(lp395
F0.047516822999999986
aF0.046564817400000034
aa(lp396
F0.04750441219999999
aF0.0471590731
aa(lp397
F0.04749200139999999
aF0.0477533287
aa(lp398
F0.0473283869
aF0.04834758440000002
aa(lp399
F0.047164772400000006
aF0.04892867910000001
aa(lp400
F0.04700115790000001
aF0.04950977370000001
aa(lp401
F0.046837543400000015
aF0.0500908684
aa(lp402
F0.04667392889999996
aF0.050671963099999995
aa(lp403
F0.04651031439999997
aF0.05125305780000002
aa(lp404
F0.046346699899999975
aF0.051834152500000015
aa(lp405
F0.04618308539999998
aF0.05241524720000001
aa(lp406
F0.04588335309999996
aF0.05299634190000001
aa(lp407
F0.04558362089999997
aF0.0535551289
aa(lp408
F0.045283888699999976
aF0.054113915900000024
aa(lp409
F0.04498415649999998
aF0.054672702900000016
aa(lp410
F0.04468442429999999
aF0.055231489900000014
aa(lp411
F0.04438469209999999
aF0.055790276900000005
aa(lp412
F0.0440849599
aF0.0563490639
aa(lp413
F0.043785227700000005
aF0.0569078509
aa(lp414
F0.04336450189999999
aF0.05746663790000002
aa(lp415
F0.0429437762
aF0.057993964200000025
aa(lp416
F0.042523050500000006
aF0.05852129050000002
aa(lp417
F0.0421023247
aF0.059048616800000016
aa(lp418
F0.04168159900000001
aF0.059575943100000014
aa(lp419
F0.04126087319999999
aF0.06010326940000001
aa(lp420
F0.0408401475
aF0.06063059570000001
aa(lp421
F0.04041942180000001
aF0.06115792200000001
aa(lp422
F0.0398928267
aF0.06168524830000001
aa(lp423
F0.03936623159999999
aF0.06217196080000002
aa(lp424
F0.038839636600000005
aF0.0626586734
aa(lp425
F0.0383130415
aF0.063145386
aa(lp426
F0.037786446399999986
aF0.0636320986
aa(lp427
F0.0372598514
aF0.06411881120000001
aa(lp428
F0.03673325629999999
aF0.06460552370000003
aa(lp429
F0.03620666119999998
aF0.06509223630000002
aa(lp430
F0.03558932099999998
aF0.0655789489
aa(lp431
F0.03497198079999998
aF0.06601589470000002
aa(lp432
F0.03435464059999998
aF0.06645284060000001
aa(lp433
F0.03373730039999998
aF0.06688978640000001
aa(lp434
F0.03311996019999998
aF0.0673267323
aa(lp435
F0.032502619999999975
aF0.06776367810000002
aa(lp436
F0.03188527979999998
aF0.068200624
aa(lp437
F0.031267939599999975
aF0.06863756980000002
aa(lp438
F0.030574978399999963
aF0.06907451560000001
aa(lp439
F0.029882017299999973
aF0.06945254170000001
aa(lp440
F0.029189056099999958
aF0.0698305678
aa(lp441
F0.028496094999999968
aF0.0702085939
aa(lp442
F0.02780313380000001
aF0.07058662000000002
aa(lp443
F0.027110172599999996
aF0.07096464610000001
aa(lp444
F0.026417211500000006
aF0.07134267220000001
aa(lp445
F0.025724250299999994
aF0.07172069830000001
aa(lp446
F0.024970792399999994
aF0.07209872440000001
aa(lp447
F0.024217334499999993
aF0.0724086777
aa(lp448
F0.023463876599999992
aF0.07271863100000002
aa(lp449
F0.022710418599999966
aF0.0730285843
aa(lp450
F0.021956960699999965
aF0.07333853760000003
aa(lp451
F0.021203502799999965
aF0.07364849100000001
aa(lp452
F0.020450044899999964
aF0.07395844430000002
aa(lp453
F0.019696586999999963
aF0.07426839760000001
aa(lp454
F0.018897756500000012
aF0.0745783509
aa(lp455
F0.018098926000000005
aF0.0748110785
aa(lp456
F0.017300095499999998
aF0.07504380600000002
aa(lp457
F0.016501264999999987
aF0.07527653349999999
aa(lp458
F0.01570243449999998
aF0.0755092611
aa(lp459
F0.014903603999999971
aF0.0757419886
aa(lp460
F0.014104773499999964
aF0.07597471610000002
aa(lp461
F0.013305943000000013
aF0.0762074437
aa(lp462
F0.012476864199999965
aF0.0764401712
aa(lp463
F0.011647785300000008
aF0.07658652
aa(lp464
F0.010818706399999996
aF0.07673286870000001
aa(lp465
F0.009989627499999982
aF0.07687921740000002
aa(lp466
F0.009160548699999991
aF0.0770255662
aa(lp467
F0.008331469799999979
aF0.07717191490000003
aa(lp468
F0.007502390899999965
aF0.07731826360000002
aa(lp469
F0.006673312099999974
aF0.07746461240000002
aa(lp470
F0.005829108999999959
aF0.07761096110000003
aa(lp471
F0.0049849059
aF0.077661778
aa(lp472
F0.004140702900000006
aF0.0777125949
aa(lp473
F0.003296499799999991
aF0.0777634118
aa(lp474
F0.0024522967999999977
aF0.0778142287
aa(lp475
F0.0016080936999999824
aF0.07786504570000002
aa(lp476
F0.0007638905999999667
aF0.07791586260000002
aa(lp477
F-8.031240000002648e-05
aF0.0779666795
aa(lp478
F-0.0009245155000000421
aF0.0780174964
aa(lp479
F-0.0017687185000000354
aF0.0779666795
aa(lp480
F-0.002612921599999994
aF0.07791586260000002
aa(lp481
F-0.0034571247000000096
aF0.07786504570000002
aa(lp482
F-0.004301327700000003
aF0.0778142287
aa(lp483
F-0.005145530800000018
aF0.0777634118
aa(lp484
F-0.005989733900000034
aF0.0777125949
aa(lp485
F-0.006833936900000027
aF0.077661778
aa(lp486
F-0.007663015800000041
aF0.07761096110000003
aa(lp487
F-0.008492094699999998
aF0.07746461240000002
aa(lp488
F-0.009321173499999988
aF0.07731826360000002
aa(lp489
F-0.0101502524
aF0.07717191490000003
aa(lp490
F-0.010979331300000015
aF0.0770255662
aa(lp491
F-0.011808410100000005
aF0.07687921740000002
aa(lp492
F-0.012637489000000017
aF0.07673286870000001
aa(lp493
F-0.013466567900000032
aF0.07658652
aa(lp494
F-0.014265398400000039
aF0.0764401712
aa(lp495
F-0.01506422889999999
aF0.0762074437
aa(lp496
F-0.015863059399999997
aF0.07597471610000002
aa(lp497
F-0.01666188980000004
aF0.0757419886
aa(lp498
F-0.017460720299999993
aF0.0755092611
aa(lp499
F-0.0182595508
aF0.07527653349999999
aa(lp500
F-0.01905838130000001
aF0.07504380600000002
aa(lp501
F-0.019857211800000017
aF0.0748110785
aa(lp502
F-0.020610669700000018
aF0.0745783509
aa(lp503
F-0.02136412770000004
aF0.07426839760000001
aa(lp504
F-0.02211758560000004
aF0.07395844430000002
aa(lp505
F-0.022871043499999986
aF0.07364849100000001
aa(lp506
F-0.023624501399999987
aF0.07333853760000003
aa(lp507
F-0.024377959299999988
aF0.0730285843
aa(lp508
F-0.02513141730000001
aF0.07271863100000002
aa(lp509
F-0.02588487520000001
aF0.0724086777
aa(lp510
F-0.0265778363
aF0.07209872440000001
aa(lp511
F-0.027270797500000016
aF0.07172069830000001
aa(lp512
F-0.027963758600000006
aF0.07134267220000001
aa(lp513
F-0.02865671980000002
aF0.07096464610000001
aa(lp514
F-0.029349681000000034
aF0.07058662000000002
aa(lp515
F-0.030042642100000023
aF0.0702085939
aa(lp516
F-0.03073560330000004
aF0.0698305678
aa(lp517
F-0.031428564400000025
aF0.06945254170000001
aa(lp518
F-0.03204590460000003
aF0.06907451560000001
aa(lp519
F-0.0326632449
aF0.06863756980000002
aa(lp520
F-0.033280585099999996
aF0.068200624
aa(lp521
F-0.0338979253
aF0.06776367810000002
aa(lp522
F-0.034515265499999996
aF0.0673267323
aa(lp523
F-0.0351326057
aF0.06688978640000001
aa(lp524
F-0.0357499459
aF0.06645284060000001
aa(lp525
F-0.0363672861
aF0.06601589470000002
aa(lp526
F-0.03689388120000001
aF0.0655789489
aa(lp527
F-0.0374204762
aF0.06509223630000002
aa(lp528
F-0.0379470713
aF0.06460552370000003
aa(lp529
F-0.038473666400000016
aF0.06411881120000001
aa(lp530
F-0.0390002614
aF0.0636320986
aa(lp531
F-0.03952685650000001
aF0.063145386
aa(lp532
F-0.04005345160000002
aF0.0626586734
aa(lp533
F-0.0405800466
aF0.06217196080000002
aa(lp534
F-0.04100077240000002
aF0.06168524830000001
aa(lp535
F-0.04142149810000001
aF0.06115792200000001
aa(lp536
F-0.0418422238
aF0.06063059570000001
aa(lp537
F-0.042262949600000016
aF0.06010326940000001
aa(lp538
F-0.04268367530000001
aF0.059575943100000014
aa(lp539
F-0.043104400999999994
aF0.059048616800000016
aa(lp540
F-0.04352512680000001
aF0.05852129050000002
aa(lp541
F-0.0439458525
aF0.057993964200000025
aa(lp542
F-0.04424558469999999
aF0.05746663790000002
aa(lp543
F-0.04454531689999999
aF0.0569078509
aa(lp544
F-0.04484504910000004
aF0.0563490639
aa(lp545
F-0.0451447814
aF0.055790276900000005
aa(lp546
F-0.04544451359999999
aF0.055231489900000014
aa(lp547
F-0.045744245799999986
aF0.054672702900000016
aa(lp548
F-0.04604397800000004
aF0.054113915900000024
aa(lp549
F-0.046343710200000034
aF0.0535551289
aa(lp550
F-0.046507324700000026
aF0.05299634190000001
aa(lp551
F-0.046670939200000025
aF0.05241524720000001
aa(lp552
F-0.04683455370000002
aF0.051834152500000015
aa(lp553
F-0.04699816820000001
aF0.05125305780000002
aa(lp554
F-0.0471617827
aF0.050671963099999995
aa(lp555
F-0.0473253972
aF0.0500908684
aa(lp556
F-0.04748901169999999
aF0.04950977370000001
aa(lp557
F-0.047652626199999985
aF0.04892867910000001
aa(lp558
F-0.04766503700000004
aF0.04834758440000002
aa(lp559
F-0.04767744780000004
aF0.0477533287
aa(lp560
F-0.04768985860000004
aF0.0471590731
aa(lp561
F-0.04770226940000004
aF0.046564817400000034
aa(lp562
F-0.04771468020000003
aF0.045970561700000016
aa(lp563
F-0.047727091000000034
aF0.04537630610000002
aa(lp564
F-0.04773950180000003
aF0.0447820504
aa(lp565
F-0.04775191269999999
aF0.044187794800000006
aa(lp566
F-0.04761151910000001
aF0.04359353909999999
aa(lp567
F-0.04747112550000003
aF0.042993045800000004
aa(lp568
F-0.047330732000000014
aF0.04239255250000002
aa(lp569
F-0.04719033840000003
aF0.041792059100000015
aa(lp570
F-0.047049944900000015
aF0.04119156580000004
aa(lp571
F-0.04690955130000003
aF0.04059107249999999
aa(lp572
F-0.046769157800000016
aF0.039990579200000015
aa(lp573
F-0.046628764200000034
aF0.03939008580000001
aa(lp574
F-0.04636726450000003
aF0.038789592500000025
aa(lp575
F-0.04610576470000001
aF0.03818429459999999
aa(lp576
F-0.04584426500000001
aF0.037578996700000006
aa(lp577
F-0.04558276520000004
aF0.036973698800000024
aa(lp578
F-0.04532126550000004
aF0.03636840090000004
aa(lp579
F-0.04505976570000002
aF0.035763103000000004
aa(lp580
F-0.04479826600000001
aF0.035157805100000016
aa(lp581
F-0.04453676619999999
aF0.034552507200000034
aa(lp582
F-0.04419090779999999
aF0.033947209299999996
aa(lp583
F-0.043845049399999995
aF0.0333377074
aa(lp584
F-0.043499191
aF0.0327282055
aa(lp585
F-0.0431533326
aF0.032118703600000006
aa(lp586
F-0.0428074742
aF0.0315092017
aa(lp587
F-0.042461615800000005
aF0.030899699800000006
aa(lp588
F-0.04211575740000001
aF0.030290197799999988
aa(lp589
F-0.04176989900000001
aF0.029680695899999988
aa(lp590
F-0.041376429400000005
aF0.02907119399999999
aa(lp591
F-0.040982959900000025
aF0.02845808870000002
aa(lp592
F-0.040589490300000024
aF0.027844983399999988
aa(lp593
F-0.04019602079999999
aF0.027231877999999994
aa(lp594
F-0.03980255120000004
aF0.026618772700000022
aa(lp595
F-0.0394090817
aF0.026005667300000028
aa(lp596
F-0.0390156121
aF0.025392561999999997
aa(lp597
F-0.03862214260000002
aF0.024779456700000025
aa(lp598
F-0.038217809400000025
aF0.02416635130000003
aa(lp599
F-0.03781347629999999
aF0.02355024309999999
aa(lp600
F-0.03740914309999999
aF0.022934134900000003
aa(lp601
F-0.0370048099
aF0.022318026700000018
aa(lp602
F-0.036600476800000024
aF0.02170191850000003
aa(lp603
F-0.03619614360000003
aF0.02108581029999999
aa(lp604
F-0.03579181040000003
aF0.020469702100000004
aa(lp605
F-0.035387477300000005
aF0.01985359390000002
aa(lp606
F-0.035009028000000005
aF0.019237485700000036
aa(lp607
F-0.034630578700000005
aF0.018618975299999986
aa(lp608
F-0.03425212950000003
aF0.018000464800000032
aa(lp609
F-0.03387368020000003
aF0.017381954300000016
aa(lp610
F-0.03349523099999999
aF0.016763443800000003
aa(lp611
F-0.03311678169999999
aF0.01614493329999999
aa(lp612
F-0.03273833239999999
aF0.015526422800000033
aa(lp613
F-0.032359883200000016
aF0.01490791230000002
aa(lp614
F-0.0320440653
aF0.014289401800000004
aa(lp615
F-0.03172824750000001
aF0.013669089600000003
aa(lp616
F-0.03141242970000002
aF0.013048777400000003
aa(lp617
F-0.031096611800000007
aF0.012428465200000002
aa(lp618
F-0.030780794000000014
aF0.011808153000000002
aa(lp619
F-0.030464976200000025
aF0.011187840800000001
aa(lp620
F-0.030149158300000013
aF0.0105675286
aa(lp621
F-0.02983334050000002
aF0.0099472164
aa(lp622
F-0.029616901600000006
aF0.0093269042
aa(lp623
F-0.029400462699999994
aF0.008705390899999998
aa(lp624
F-0.029184023800000035
aF0.00808387750000003
aa(lp625
F-0.028967584999999987
aF0.007462364200000023
aa(lp626
F-0.02875114610000003
aF0.006840850799999999
aa(lp627
F-0.028534707200000016
aF0.006219337499999991
aa(lp628
F-0.0283182683
aF0.005597824100000023
aa(lp629
F-0.028101829399999986
aF0.004976310800000022
aa(lp630
F-0.028021517000000017
aF0.004354797500000014
aa(lp631
F-0.02794120459999999
aF0.003732683500000007
aa(lp632
F-0.027860892200000025
aF0.0031105696000000155
aa(lp633
F-0.0277805798
aF0.0024884557000000307
aa(lp634
F-0.02770026740000003
aF0.0018663417999999835
aa(lp635
F-0.027619955000000005
aF0.0012442278999999987
aa(lp636
F-0.027539642500000013
aF0.0006221138999999848
aa(lp637
F-0.027459330099999988
aF-0.0
aa.